target datalayout = "e-m:e-p270:32:32-p271:32:32-p272:64:64-i64:64-i128:128-f80:128-n8:16:32:64-S128"
target triple = "x86_64-pc-linux-gnu"

@.str = private unnamed_addr constant [3 x i8] c"h1\00", align 1
@.str.1 = private unnamed_addr constant [3 x i8] c"h2\00", align 1
@.str.2 = private unnamed_addr constant [3 x i8] c"h3\00", align 1
@.str.3 = private unnamed_addr constant [9 x i8] c"http/1.1\00", align 1

; Function Attrs: nounwind uwtable
define hidden i32 @Curl_alpn2alpnid(ptr noundef %0, i64 noundef %1) #0 {
  %3 = alloca i32, align 4
  %4 = alloca ptr, align 8
  %5 = alloca i64, align 8
  store ptr %0, ptr %4, align 8, !tbaa !3
  store i64 %1, ptr %5, align 8, !tbaa !8
  %6 = load i64, ptr %5, align 8, !tbaa !8
  %7 = icmp eq i64 %6, 2
  br i1 %7, label %8, label %24

8:                                                ; preds = %2
  %9 = load ptr, ptr %4, align 8, !tbaa !3
  %10 = call i32 @curl_strnequal(ptr noundef %9, ptr noundef @.str, i64 noundef 2)
  %11 = icmp ne i32 %10, 0
  br i1 %11, label %12, label %13

12:                                               ; preds = %8
  store i32 8, ptr %3, align 4
  br label %35

13:                                               ; preds = %8
  %14 = load ptr, ptr %4, align 8, !tbaa !3
  %15 = call i32 @curl_strnequal(ptr noundef %14, ptr noundef @.str.1, i64 noundef 2)
  %16 = icmp ne i32 %15, 0
  br i1 %16, label %17, label %18

17:                                               ; preds = %13
  store i32 16, ptr %3, align 4
  br label %35

18:                                               ; preds = %13
  %19 = load ptr, ptr %4, align 8, !tbaa !3
  %20 = call i32 @curl_strnequal(ptr noundef %19, ptr noundef @.str.2, i64 noundef 2)
  %21 = icmp ne i32 %20, 0
  br i1 %21, label %22, label %23

22:                                               ; preds = %18
  store i32 32, ptr %3, align 4
  br label %35

23:                                               ; preds = %18
  br label %34

24:                                               ; preds = %2
  %25 = load i64, ptr %5, align 8, !tbaa !8
  %26 = icmp eq i64 %25, 8
  br i1 %26, label %27, label %33

27:                                               ; preds = %24
  %28 = load ptr, ptr %4, align 8, !tbaa !3
  %29 = call i32 @curl_strnequal(ptr noundef %28, ptr noundef @.str.3, i64 noundef 8)
  %30 = icmp ne i32 %29, 0
  br i1 %30, label %31, label %32

31:                                               ; preds = %27
  store i32 8, ptr %3, align 4
  br label %35

32:                                               ; preds = %27
  br label %33

33:                                               ; preds = %32, %24
  br label %34

34:                                               ; preds = %33, %23
  store i32 0, ptr %3, align 4
  br label %35

35:                                               ; preds = %34, %31, %22, %17, %12
  %36 = load i32, ptr %3, align 4
  ret i32 %36
}