; Function Attrs: nounwind uwtable
define hidden range(i32 0, 33) i32 @Curl_alpn2alpnid(ptr noundef %0, i64 noundef %1) local_unnamed_addr #0 {
  switch i64 %1, label %11 [
    i64 2, label %3
    i64 8, label %9
  ]

3:                                                ; preds = %2
  %4 = tail call i32 @curl_strnequal(ptr noundef %0, ptr noundef nonnull @.str, i64 noundef 2) #10
  %.not7 = icmp eq i32 %4, 0
  br i1 %.not7, label %5, label %12

5:                                                ; preds = %3
  %6 = tail call i32 @curl_strnequal(ptr noundef %0, ptr noundef nonnull @.str.1, i64 noundef 2) #10
  %.not8 = icmp eq i32 %6, 0
  br i1 %.not8, label %7, label %12

7:                                                ; preds = %5
  %8 = tail call i32 @curl_strnequal(ptr noundef %0, ptr noundef nonnull @.str.2, i64 noundef 2) #10
  %.not9 = icmp eq i32 %8, 0
  br i1 %.not9, label %11, label %12

9:                                                ; preds = %2
  %10 = tail call i32 @curl_strnequal(ptr noundef %0, ptr noundef nonnull @.str.3, i64 noundef 8) #10
  %.not = icmp eq i32 %10, 0
  br i1 %.not, label %11, label %12

11:                                               ; preds = %2, %9, %7
  br label %12

12:                                               ; preds = %9, %7, %5, %3, %11
  %.0 = phi i32 [ 0, %11 ], [ 8, %3 ], [ 16, %5 ], [ 32, %7 ], [ 8, %9 ]
  ret i32 %.0
}